; Function Attrs: mustprogress uwtable
define void @_ZNK2cv15line_descriptor16BinaryDescriptor7computeERKSt6vectorINS_3MatESaIS3_EERS2_IS2_INS0_7KeyLineESaIS8_EESaISA_EERS5_b(ptr noundef nonnull align 8 dereferenceable(192) %0, ptr nocapture noundef nonnull readonly align 8 dereferenceable(24) %1, ptr nocapture noundef nonnull readonly align 8 dereferenceable(24) %2, ptr nocapture noundef nonnull readonly align 8 dereferenceable(24) %3, i1 noundef zeroext %4) local_unnamed_addr #5 align 2 {
  %6 = getelementptr inbounds i8, ptr %1, i64 8
  %7 = load ptr, ptr %6, align 8
  %8 = load ptr, ptr %1, align 8
  %.not = icmp eq ptr %7, %8
  br i1 %.not, label %._crit_edge, label %.lr.ph

.lr.ph:                                           ; preds = %5, %.lr.ph
  %9 = phi ptr [ %20, %.lr.ph ], [ %8, %5 ]
  %.010 = phi i64 [ %18, %.lr.ph ], [ 0, %5 ]
  %10 = getelementptr inbounds %"class.cv::Mat", ptr %9, i64 %.010
  %11 = load ptr, ptr %2, align 8
  %12 = getelementptr inbounds %"class.std::vector.46", ptr %11, i64 %.010
  %13 = load ptr, ptr %3, align 8
  %14 = getelementptr inbounds %"class.cv::Mat", ptr %13, i64 %.010
  %15 = load ptr, ptr %0, align 8
  %16 = getelementptr inbounds i8, ptr %15, i64 80
  %17 = load ptr, ptr %16, align 8
  tail call void %17(ptr noundef nonnull align 8 dereferenceable(192) %0, ptr noundef nonnull align 8 dereferenceable(96) %10, ptr noundef nonnull align 8 dereferenceable(24) %12, ptr noundef nonnull align 8 dereferenceable(96) %14, i1 noundef zeroext %4, i1 noundef zeroext false)
  %18 = add nuw i64 %.010, 1
  %19 = load ptr, ptr %6, align 8
  %20 = load ptr, ptr %1, align 8
  %21 = ptrtoint ptr %19 to i64
  %22 = ptrtoint ptr %20 to i64
  %23 = sub i64 %21, %22
  %24 = sdiv exact i64 %23, 96
  %25 = icmp ult i64 %18, %24
  br i1 %25, label %.lr.ph, label %._crit_edge, !llvm.loop !58

._crit_edge:                                      ; preds = %.lr.ph, %5
  ret void
}